; Function Attrs: nofree norecurse nosync nounwind memory(read, inaccessiblemem: none) uwtable
define hidden ptr @_mi_heap_by_tag(ptr noundef readonly %0, i8 noundef zeroext %1) local_unnamed_addr #3 {
  %3 = getelementptr inbounds nuw i8, ptr %0, i64 225
  %4 = load i8, ptr %3, align 1, !tbaa !42
  %5 = icmp eq i8 %4, %1
  br i1 %5, label %.loopexit, label %6

6:                                                ; preds = %2
  %7 = load ptr, ptr %0, align 8, !tbaa !14
  %8 = getelementptr inbounds nuw i8, ptr %7, i64 24
  %.01013 = load ptr, ptr %8, align 8, !tbaa !40
  %.not14 = icmp eq ptr %.01013, null
  br i1 %.not14, label %.loopexit, label %.lr.ph

.lr.ph:                                           ; preds = %6, %12
  %.01015 = phi ptr [ %.010, %12 ], [ %.01013, %6 ]
  %9 = getelementptr inbounds nuw i8, ptr %.01015, i64 225
  %10 = load i8, ptr %9, align 1, !tbaa !42
  %11 = icmp eq i8 %10, %1
  br i1 %11, label %.loopexit, label %12

12:                                               ; preds = %.lr.ph
  %13 = getelementptr inbounds nuw i8, ptr %.01015, i64 216
  %.010 = load ptr, ptr %13, align 8, !tbaa !40
  %.not = icmp eq ptr %.010, null
  br i1 %.not, label %.loopexit, label %.lr.ph, !llvm.loop !47

.loopexit:                                        ; preds = %.lr.ph, %12, %6, %2
  %.011 = phi ptr [ %0, %2 ], [ null, %6 ], [ %.01015, %.lr.ph ], [ null, %12 ]
  ret ptr %.011
}